(dp0
S'frederick_rice@brown.edu'
p1
F0.09055555555555556
sS'yazen_alani@brown.edu'
p2
F0.3125
sS'isaiah_bryant@brown.edu'
p3
F0.17833333333333334
sS'xuan_chen@brown.edu'
p4
F8.307222222222222
sS'zachary_loery@brown.edu'
p5
F25.059484126984128
sS'alden.richards@gmail.com'
p6
F18.123333333333335
sS'cora_johnson-roberson@brown.edu'
p7
F0.1322222222222222
sS'eng-practicum-program@google.com'
p8
F6.305555555555555
sS'joseph_engelman@brown.edu'
p9
F128.03862713675215
sS'choefer@pmd.com'
p10
F4.118888888888889
sS'csuche@risd.edu'
p11
F0.615
sS'epopovich@pmd.com'
p12
F136.8509027777778
sS'dilip.arumugam@gmail.com'
p13
F0.6586111111111111
sS'hmendes@cs.brown.edu'
p14
F12.754166666666666
sS'christopher_keith@brown.edu'
p15
F5.17820987654321
sS'res_life@brown.edu'
p16
F0.056666666666666664
sS'CollegeBoard@noreply.collegeboard.org'
p17
F1.3444444444444443
sS'sfackrell@google.com'
p18
F4.303819444444445
sS'alyssa_baum@brown.edu'
p19
F0.6631944444444444
sS'jwhitaker@palantir.com'
p20
F12.953425925925927
sS'benjamin_pruzan@brown.edu'
p21
F23.175416666666667
sS'peter_kirschner@brown.edu'
p22
F0.8019444444444445
sS'rihana_president@brown.edu'
p23
F0.05388888888888889
sS'erik_ronning@brown.edu'
p24
F0.14069444444444446
sS'jide_omekam@brown.edu'
p25
F0.10212962962962963
sS'max_rosenwasser@brown.edu'
p26
F0.9927777777777778
sS'john_adler@brown.edu'
p27
F1.8958333333333333
sS'michael_murphy@brown.edu'
p28
F0.8383333333333334
sS'mwithers@betaspring.com'
p29
F61.193333333333335
sS'emma_herold@brown.edu'
p30
F1.9085185185185185
sS'akenney@pmd.com'
p31
F50.94976851851851
sS'ivan_kelber@brown.edu'
p32
F2.5533333333333332
sS'matthewdu77@gmail.com'
p33
F14.311666666666666
sS'samuel_brebner@brown.edu'
p34
F0.28555555555555556
sS'amy_butcher@brown.edu'
p35
F0.02388888888888889
sS'kyle_moreno@brown.edu'
p36
F4.2925
sS'hangkun_ung@brown.edu'
p37
F1.7138888888888888
sS'katie_hsia@brown.edu'
p38
F0.4534259259259259
sS'maximilian_fuller@brown.edu'
p39
F3.4204166666666667
sS'noah_fulmer@brown.edu'
p40
F110.78611111111111
sS'andrew_tian@brown.edu'
p41
F2.0077777777777777
sS'Stanford_Tran@brown.edu'
p42
F1.2461111111111112
sS'alden_richards@brown.edu'
p43
F2.173611111111111
sS'seandavidmcgrath77@gmail.com'
p44
F3.5519444444444446
sS'anjali_pal@brown.edu'
p45
F73.54708333333333
sS'kyle_myerson@brown.edu'
p46
F0.3635648148148148
sS'samuel_dunietz@brown.edu'
p47
F1.8172222222222223
sS'cs166tas@cs.brown.edu'
p48
F70.45694444444445
sS'matthew_cooper@brown.edu'
p49
F1.3733333333333333
sS'cmaynard@janestreet.com'
p50
F0.08833333333333335
sS'ian_wyszynski@brown.edu'
p51
F1.4102777777777777
sS'john@apropose.com'
p52
F33.041626984126985
sS'orlando_rodriguez@brown.edu'
p53
F0.9455555555555556
sS'christopher.s.chen@gmail.com'
p54
F76.95861111111111
sS'saara@brown.edu'
p55
F60.65402777777778
sS'jacob_rosenfeld@brown.edu'
p56
F3.3884444444444446
sS'cs018tas@cs.brown.edu'
p57
F1479.5413888888888
sS'gail_medbury@brown.edu'
p58
F0.5756944444444445
sS'nicholas_briggs@brown.edu'
p59
F10.535972222222222
sS'karen_marie_haberstroh@brown.edu'
p60
F5.245555555555556
sS'john_joe_friedmann@brown.edu'
p61
F0.5966666666666667
sS'justin_brower@brown.edu'
p62
F14.160111111111116
sS'diane_schulze@brown.edu'
p63
F0.21569444444444447
sS'alex_kleiman@brown.edu'
p64
F6.071018518518518
sS'klein@brown.edu'
p65
F0.946388888888889
sS'mlittman@cs.brown.edu'
p66
F5.047777777777778
sS'wenjie_zheng@brown.edu'
p67
F98.64722222222223
sS'angelcai6000@yahoo.com'
p68
F3.046388888888889
sS'sean_d_mcgrath@brown.edu'
p69
F0.024166666666666666
sS'jessie_curran@brown.edu'
p70
F0.05638888888888889
sS'dan@schlosser.io'
p71
F3.245833333333333
sS'Meridith.Ward@medecision.com'
p72
F1.7663888888888888
sS'samuel_angelo_crisanto@brown.edu'
p73
F23.80563333333333
sS'sbarkanic@thejdkgroup.com'
p74
F7.448888888888889
sS'Kyle.Ralston@DEShawResearch.com'
p75
F123.80027777777778
sS'daniel_glauber@brown.edu'
p76
F2.1133333333333333
sS'no-reply@timetrade.com'
p77
F0.0038888888888888888
sS'jj@cs.brown.edu'
p78
F1.6256666666666668
sS'yueping_wang@brown.edu'
p79
F22.901666666666667
sS'sarah_grace@brown.edu'
p80
F0.023333333333333334
sS'grant_gustafson@brown.edu'
p81
F0.7225
sS'dj@cs.brown.edu'
p82
F4.310555555555555
sS'max_kirsch@alumni.brown.edu'
p83
F4.215
sS'evanpalmer@tumblr.com'
p84
F2.9411111111111117
sS'torin_collier-mark@brown.edu'
p85
F5.068888888888889
sS'keiko_oki@brown.edu'
p86
F0.43376543209876545
sS'alicedougherty@google.com'
p87
F4.220833333333333
sS'sangwon.sim@gmail.com'
p88
F3.648282828282829
sS'lynn_cavicchi@brown.edu'
p89
F0.08388888888888889
sS'medecision+email+9m.qw@agents.icims.com'
p90
F3.6605555555555553
sS'medecision+email+av.t4@agents.icims.com'
p91
F0.8066666666666666
sS'benjamin@sayitwithacondom.com'
p92
F4.2775
sS'darian_surratt@brown.edu'
p93
F0.35083333333333333
sS'eroncanc@cs.brown.edu'
p94
F23.784444444444443
sS'yeounohster@gmail.com'
p95
F5.8325
sS'Paul.Sledd@microsoft.com'
p96
F35.98861111111111
sS'jacob_g_stern@brown.edu'
p97
F0.8875
sS'atear@betaspring.com'
p98
F2.2034722222222225
sS'natalie_chapkis@brown.edu'
p99
F0.15402777777777776
sS'lucile_ackley@brown.edu'
p100
F0.3706111111111111
sS'financial_aid@brown.edu'
p101
F212.36305555555555
sS'amchugh@google.com'
p102
F4.567916666666667
sS'kathleen_mcsharry@brown.edu'
p103
F0.49277777777777776
sS'stephanie_obodda@brown.edu'
p104
F0.897962962962963
sS'jingjing_cao@brown.edu'
p105
F0.15611111111111112
sS'vietn523@gmail.com'
p106
F0.18722222222222223
sS'jacob_thomas@brown.edu'
p107
F0.026111111111111113
sS'hammurabi_mendes@brown.edu'
p108
F0.36916666666666664
sS'alexandra_paul@brown.edu'
p109
F1.2705555555555554
sS'wesley_herts@brown.edu'
p110
F1.017638888888889
sS'mariska_raglow-defranco@brown.edu'
p111
F0.21805555555555556
sS'jillianh@google.com'
p112
F15.761805555555556
sS'lauren_clarke@brown.edu'
p113
F0.14805555555555555
sS'jerry@apropose.com'
p114
F97.4800925925926
sS'problem@cs.brown.edu'
p115
F0.06694444444444445
sS'cody_ma@brown.edu'
p116
F1.8033333333333332
sS'calum_mcclelland@brown.edu'
p117
F93.29583333333333
sS'brendan_stone@brown.edu'
p118
F0.38217592592592586
sS'harrison_pincket@brown.edu'
p119
F53.31927777777778
sS'nicholas_anthony@brown.edu'
p120
F0.7690277777777779
sS'luke_camery@brown.edu'
p121
F24.679960317460313
sS'kendal_cockrel@brown.edu'
p122
F0.6487499999999999
sS'ishaan@brown.edu'
p123
F0.5877777777777777
sS'harsha_yeddanapudy@brown.edu'
p124
F0.30777777777777776
sS'javier_sandoval@brown.edu'
p125
F1.0141666666666667
sS'independent_study@brown.edu'
p126
F48.531388888888884
sS'mta@cs.brown.edu'
p127
F0.03388888888888889
sS'myles_gurule@brown.edu'
p128
F0.24888888888888888
sS'arielle_chapin@brown.edu'
p129
F2.5629166666666667
sS'christopher_j_lee@brown.edu'
p130
F48.83722222222222
sS'fredrick_rhine@brown.edu'
p131
F0.09277777777777778
sS'mhennessy@apple.com'
p132
F46.08694444444444
sS'raphael.laporte@live.com'
p133
F18.261944444444445
sS'todd_winkler@brown.edu'
p134
F0.43194444444444446
sS'ericadoh@gmail.com'
p135
F1.4755555555555555
sS'mjrowlan@cs.brown.edu'
p136
F0.056666666666666664
sS'meldon@cs.brown.edu'
p137
F0.71
sS'charles_yeh@brown.edu'
p138
F19.69388888888889
sS'john_tambunting@brown.edu'
p139
F6.787833333333333
sS'cody@cs.brown.edu'
p140
F0.1725
sS'jsl15@cs.brown.edu'
p141
F0.029722222222222223
sS'teri_minogue@brown.edu'
p142
F24.953611111111112
sS'hfs@lems.brown.edu'
p143
F1.6280555555555556
sS'eng-practicum-program+noreply@google.com'
p144
F4.913888888888889
sS'diana_richardson@brown.edu'
p145
F38.56666666666667
sS'enw@caveteen.com'
p146
F4.479166666666667
sS'thomas_doeppner_jr@brown.edu'
p147
F1.504351851851852
sS'info@brownentrepreneurship.com'
p148
F0.18944444444444444
sS'carl_olsson@brown.edu'
p149
F7.069652777777778
sS'jeff_huang@brown.edu'
p150
F4.085277777777778
sS'edward_li@brown.edu'
p151
F2.0881944444444445
sS'athyuttam_eleti@brown.edu'
p152
F3.0559722222222225
sS'eric_tierney@brown.edu'
p153
F3.3144444444444443
sS'yoshiaki_kuida@brown.edu'
p154
F0.4225
sS'anson_rosenthal@brown.edu'
p155
F43.865
sS'esteban_roncancio@brown.edu'
p156
F0.5858333333333333
sS'ankit_shah@brown.edu'
p157
F0.08666666666666667
sS'ahmad_najeeb@brown.edu'
p158
F6.028611111111111
sS'stefie10@cs.brown.edu'
p159
F2.1708333333333334
sS'arton_dokic@brown.edu'
p160
F2.9337962962962965
sS'support@instaedu.com'
p161
F4.834444444444444
sS'rong_yuan@brown.edu'
p162
F0.8241666666666667
sS'dana_gooley@brown.edu'
p163
F6.599166666666666
sS'nateparro2t@gmail.com'
p164
F0.5133333333333333
sS'bwilliams@releventsports.com'
p165
F49.93361111111111
sS'ignite@brownentrepreneurship.com'
p166
F0.21546296296296294
sS'osherman@me.com'
p167
F23.69509259259259
sS'reply+jcH5aBnQkHb+DBcuzEeCLZ+XYhe2gQr04TJ1UTGiUzw=@mg.instaedu.com'
p168
F3.714166666666667
sS'elijah_carrel@brown.edu'
p169
F2.453472222222222
sS'dennis_johannssen@brown.edu'
p170
F0.18444444444444444
sS'sharon_lo@brown.edu'
p171
F0.40055555555555555
sS'gabriel_lyons@brown.edu'
p172
F19.857326388888893
sS'hayley_siegel@brown.edu'
p173
F0.5177777777777778
sS'chloe_kliman-silver@brown.edu'
p174
F3.5405555555555557
sS'cs033headtas@cs.brown.edu'
p175
F0.17194444444444446
sS'bursar_billing@brown.edu'
p176
F1.3877777777777778
sS'jliebowf@cs.brown.edu'
p177
F0.5913888888888889
sS'alexandra_wong@brown.edu'
p178
F0.8399074074074075
sS'eprogram@brown.edu'
p179
F18.83388888888889
sS'sandylee@fb.com'
p180
F14.216944444444444
sS'jessica@a16z.com'
p181
F46.29222222222222
sS'mikaela_bloch@brown.edu'
p182
F0.15256944444444445
sS'vivian_hsiao@brown.edu'
p183
F4.176388888888889
sS'dylan_gattey@brown.edu'
p184
F48.30625
sS'samuel_kelly@brown.edu'
p185
F2.5362500000000003
sS'michelle_sullivan@brown.edu'
p186
F0.1802777777777778
sS'taylor_michael@brown.edu'
p187
F3.5841666666666665
sS'cpatterson@google.com'
p188
F2.609583333333333
sS'john_yang_z@brown.edu'
p189
F0.9436111111111111
sS'joshua_liebow-feeser@brown.edu'
p190
F21.32130050505051
sS'michael_xu@brown.edu'
p191
F14.785092592592592
sS'beini_pan@brown.edu'
p192
F3.316388888888889
sS'birkin_diana@brown.edu'
p193
F53.22152777777778
sS'hua_wang@brown.edu'
p194
F0.055
sS'hdcp@brown.edu'
p195
F0.0525
sS'zheng_yang_1@brown.edu'
p196
F1.9892857142857143
sS'wilson.lin27@gmail.com'
p197
F16.505555555555556
sS'rachel_murai@brown.edu'
p198
F1.873888888888889
sS'loudon_cohen@brown.edu'
p199
F8.346435185185186
sS'peter_clarke@brown.edu'
p200
F0.25555555555555554
sS'cyan.havefun@gmail.com'
p201
F0.15777777777777777
sS'emma_catlin@brown.edu'
p202
F0.41305555555555556
sS'huag@cs.brown.edu'
p203
F2.2070833333333333
sS'cora.johnson.roberson@gmail.com'
p204
F5.484365079365079
sS'banister@hotmail.com'
p205
F0.38173611111111116
sS'miles_holland@brown.edu'
p206
F0.21138888888888888
sS'michael_thiesmeyer@brown.edu'
p207
F0.9938888888888889
sS'wct616@gmail.com'
p208
F19.521736111111107
sS'volunteers@abetterworldbydesign.com'
p209
F79.22555555555556
sS'richard.j.hoggins@accenturefederal.com'
p210
F3.160833333333333
sS'jengelman@aol.com'
p211
F3.3380555555555556
sS'indy@cs.brown.edu'
p212
F0.12222222222222222
sS'bjfogg@stanford.edu'
p213
F2.9077777777777776
sS'j.eisenmann@gmail.com'
p214
F1.09
sS'madeline_kau@brown.edu'
p215
F15.303055555555554
sS'mlh244@gmail.com'
p216
F9.933055555555555
sS'nicholas_fahey@brown.edu'
p217
F0.13240740740740742
sS'venturelab@brownentrepreneurship.com'
p218
F11.407361111111113
sS'taylor_derosa@brown.edu'
p219
F0.08694444444444445
sS'pvaliant@gmail.com'
p220
F3.4121527777777776
sS'tiffany_j_chen@brown.edu'
p221
F0.12583333333333332
sS'hanzhi_yue@brown.edu'
p222
F7.811388888888889
sS'klein@cs.brown.edu'
p223
F0.235
sS'phuc_anh_tran@brown.edu'
p224
F0.1527777777777778
sS'ryan_lessing@brown.edu'
p225
F0.0661111111111111
sS'emily_wu@brown.edu'
p226
F14.176277777777775
sS'david_elitzer@brown.edu'
p227
F1.4083333333333334
sS'nisarg_rawal@brown.edu'
p228
F0.8104166666666667
sS'bkeller@palantir.com'
p229
F15.074583333333335
sS'nathaniel_parrott@brown.edu'
p230
F4.982777777777778
sS'jonathanschear@gmail.com'
p231
F5.7679629629629625
sS'maxine@apropose.com'
p232
F3.4116666666666666
sS'dan@snapchat.com'
p233
F3.3858333333333333
sS'notification@jobvite.com'
p234
F7.879814814814814
sS'abby_muller@brown.edu'
p235
F0.7641666666666667
sS'jason@snapchat.com'
p236
F3.1025
sS'oussama_fadil@brown.edu'
p237
F0.47888888888888886
sS'kate_tompkins@brown.edu'
p238
F0.22472222222222224
sS'miles.e.eldon@gmail.com'
p239
F0.07527777777777778
sS'asa_burroughs@brown.edu'
p240
F23.087222222222223
sS'cody_mello@brown.edu'
p241
F0.05416666666666667
sS'elizabeth_malone@brown.edu'
p242
F1.3611111111111112
sS'quinn_herrera@brown.edu'
p243
F0.22111111111111112
sS'fred_yattaw@brown.edu'
p244
F118.90333333333334
sS'benjamin_weedon@brown.edu'
p245
F12.67212962962963
sS'mtortora@fb.com'
p246
F4.365555555555556
sS'ping_hu@brown.edu'
p247
F0.2675
s.